V@media -sass-debug-info{filename{}line{font-family:\u005c000032}}\u000a.deckTitle {\u000a  font-weight: "bold";\u000a}\u000a\u000a@media -sass-debug-info{filename{}line{font-family:\u005c000035}}\u000a.termCount {\u000a  font-color: #999999;\u000a}\u000a
p1
.